Certificate:
    Data:
        Version: 3 (0x2)
        Serial Number: 1 (0x1)
    Signature Algorithm: md5WithRSAEncryption
        Issuer: C=FR, ST=Radius, L=Somewhere, O=Example Inc./emailAddress=admin@example.com, CN=Example Certificate Authority
        Validity
            Not Before: Mar  7 20:25:45 2018 GMT
            Not After : Mar  7 20:25:45 2019 GMT
        Subject: C=FR, ST=Radius, O=Example Inc., CN=Example Server Certificate/emailAddress=admin@example.com
        Subject Public Key Info:
            Public Key Algorithm: rsaEncryption
                Public-Key: (2048 bit)
                Modulus:
                    00:c0:eb:cf:f7:f1:db:9b:85:c3:c5:1d:14:a4:2b:
                    0e:f9:00:20:b1:aa:14:eb:0d:10:5f:40:1f:30:b3:
                    32:fd:3f:46:f7:88:b2:f7:b7:cc:c4:c8:49:53:ff:
                    67:b2:1b:ba:83:81:94:ad:18:c6:0a:a1:97:a3:a0:
                    14:f2:4f:fa:32:92:8c:eb:4f:c0:be:a9:29:19:93:
                    cc:e0:d5:6b:a0:82:a3:17:70:c8:c2:c9:2c:38:de:
                    7d:a2:78:98:e7:60:6b:9c:91:2f:27:35:0d:c7:f5:
                    7b:7f:3a:7f:01:52:10:a7:0c:61:0f:44:6b:48:1c:
                    e3:f4:14:15:3c:c0:36:81:af:53:3f:dc:9d:7f:d6:
                    4e:1d:a1:aa:ad:e4:c3:69:6a:05:9d:29:06:ff:36:
                    fe:f1:e3:46:63:d8:63:1b:3b:e5:f1:cf:f0:36:ce:
                    29:28:1d:85:3c:df:4b:4a:17:3e:c7:23:a2:06:64:
                    f6:2b:ba:36:c8:f4:34:57:2f:94:5e:bc:f8:7a:7c:
                    d8:62:8b:ef:83:c6:2b:16:f9:2a:6b:9e:21:b5:37:
                    7d:7d:a9:7e:a4:87:1b:5a:bd:01:a0:51:ad:e3:eb:
                    ce:8b:2f:9a:42:c8:b8:02:a9:15:79:25:b5:71:29:
                    bf:a4:04:b5:c9:50:2e:3b:c7:8f:45:ef:b6:81:8e:
                    1c:31
                Exponent: 65537 (0x10001)
        X509v3 extensions:
            X509v3 Extended Key Usage: 
                TLS Web Server Authentication
    Signature Algorithm: md5WithRSAEncryption
         01:4c:c4:2a:55:1f:75:05:4f:cc:c3:33:dc:85:c6:21:f2:3c:
         d2:ae:42:02:57:4c:c1:98:a8:17:c2:cc:0a:02:06:bf:e5:4e:
         87:c6:bd:5b:b4:5c:0f:1d:6e:55:27:dd:aa:3c:0d:e6:55:52:
         77:8e:12:18:a5:2b:12:bc:67:b3:62:21:c2:df:89:8f:41:0f:
         60:1d:5e:9b:29:05:fa:22:45:8e:93:bb:b8:24:3c:e2:37:ab:
         46:15:a8:64:d6:30:13:22:6a:e0:48:ed:e7:3d:71:f7:ca:d4:
         5d:b1:06:b5:2d:7d:42:ea:13:cf:b9:3c:24:7b:39:2a:89:86:
         62:85:cf:8d:00:51:96:bc:3c:83:0c:0e:7c:bc:a9:7d:02:1a:
         ee:16:57:c8:39:b5:25:20:93:1b:81:48:ec:c9:0b:39:42:dd:
         af:ef:1a:e0:a2:2e:df:3a:0a:e4:dc:3c:ee:59:79:39:bf:15:
         83:f0:a9:ae:b0:94:0e:45:76:2c:ce:50:c4:93:bc:c8:60:41:
         90:ce:09:af:ae:55:61:e5:83:82:ac:2e:df:95:3a:b9:e3:4d:
         0d:74:24:d8:ff:3f:90:86:6f:c8:31:9f:bd:4d:5b:8e:b3:b8:
         09:24:01:38:de:ea:00:bc:95:9e:7f:37:38:a2:61:74:09:f8:
         df:e6:4a:ed
-----BEGIN CERTIFICATE-----
MIIDojCCAoqgAwIBAgIBATANBgkqhkiG9w0BAQQFADCBkzELMAkGA1UEBhMCRlIx
DzANBgNVBAgMBlJhZGl1czESMBAGA1UEBwwJU29tZXdoZXJlMRUwEwYDVQQKDAxF
eGFtcGxlIEluYy4xIDAeBgkqhkiG9w0BCQEWEWFkbWluQGV4YW1wbGUuY29tMSYw
JAYDVQQDDB1FeGFtcGxlIENlcnRpZmljYXRlIEF1dGhvcml0eTAeFw0xODAzMDcy
MDI1NDVaFw0xOTAzMDcyMDI1NDVaMHwxCzAJBgNVBAYTAkZSMQ8wDQYDVQQIDAZS
YWRpdXMxFTATBgNVBAoMDEV4YW1wbGUgSW5jLjEjMCEGA1UEAwwaRXhhbXBsZSBT
ZXJ2ZXIgQ2VydGlmaWNhdGUxIDAeBgkqhkiG9w0BCQEWEWFkbWluQGV4YW1wbGUu
Y29tMIIBIjANBgkqhkiG9w0BAQEFAAOCAQ8AMIIBCgKCAQEAwOvP9/Hbm4XDxR0U
pCsO+QAgsaoU6w0QX0AfMLMy/T9G94iy97fMxMhJU/9nshu6g4GUrRjGCqGXo6AU
8k/6MpKM60/AvqkpGZPM4NVroIKjF3DIwsksON59oniY52BrnJEvJzUNx/V7fzp/
AVIQpwxhD0RrSBzj9BQVPMA2ga9TP9ydf9ZOHaGqreTDaWoFnSkG/zb+8eNGY9hj
Gzvl8c/wNs4pKB2FPN9LShc+xyOiBmT2K7o2yPQ0Vy+UXrz4enzYYovvg8YrFvkq
a54htTd9fal+pIcbWr0BoFGt4+vOiy+aQsi4AqkVeSW1cSm/pAS1yVAuO8ePRe+2
gY4cMQIDAQABoxcwFTATBgNVHSUEDDAKBggrBgEFBQcDATANBgkqhkiG9w0BAQQF
AAOCAQEAAUzEKlUfdQVPzMMz3IXGIfI80q5CAldMwZioF8LMCgIGv+VOh8a9W7Rc
Dx1uVSfdqjwN5lVSd44SGKUrErxns2Ihwt+Jj0EPYB1emykF+iJFjpO7uCQ84jer
RhWoZNYwEyJq4Ejt5z1x98rUXbEGtS19QuoTz7k8JHs5KomGYoXPjQBRlrw8gwwO
fLypfQIa7hZXyDm1JSCTG4FI7MkLOULdr+8a4KIu3zoK5Nw87ll5Ob8Vg/CprrCU
DkV2LM5QxJO8yGBBkM4Jr65VYeWDgqwu35U6ueNNDXQk2P8/kIZvyDGfvU1bjrO4
CSQBON7qALyVnn83OKJhdAn43+ZK7Q==
-----END CERTIFICATE-----
